target datalayout = "e-m:e-p270:32:32-p271:32:32-p272:64:64-i64:64-i128:128-f80:128-n8:16:32:64-S128"
target triple = "x86_64-pc-linux-gnu"

%struct.V360Context = type { ptr, i32, i32, i32, i32, i32, i32, i32, ptr, ptr, ptr, ptr, ptr, [6 x i32], [6 x i32], [6 x i32], [6 x i32], [3 x i32], i32, i32, float, float, i32, i32, float, float, float, float, float, i32, i32, i32, i32, i32, i32, i32, float, float, float, float, float, float, [2 x float], [2 x float], [2 x [4 x float]], [3 x float], i32, i32, i32, i32, [4 x i32], [4 x i32], [4 x i32], [4 x i32], [4 x i32], [4 x i32], [4 x i32], [4 x i32], [4 x i32], [4 x i32], [4 x i32], i32, i32, i32, i32, i32, i32, ptr, [4 x i32], ptr, ptr, ptr, ptr, ptr }

; Function Attrs: alwaysinline nounwind willreturn memory(none) uwtable
define internal i32 @av_clip_c(i32 noundef %0, i32 noundef %1, i32 noundef %2) #3 {
  %4 = alloca i32, align 4
  %5 = alloca i32, align 4
  %6 = alloca i32, align 4
  %7 = alloca i32, align 4
  store i32 %0, ptr %5, align 4, !tbaa !9
  store i32 %1, ptr %6, align 4, !tbaa !9
  store i32 %2, ptr %7, align 4, !tbaa !9
  %8 = load i32, ptr %5, align 4, !tbaa !9
  %9 = load i32, ptr %6, align 4, !tbaa !9
  %10 = icmp slt i32 %8, %9
  br i1 %10, label %11, label %13

11:                                               ; preds = %3
  %12 = load i32, ptr %6, align 4, !tbaa !9
  store i32 %12, ptr %4, align 4
  br label %21

13:                                               ; preds = %3
  %14 = load i32, ptr %5, align 4, !tbaa !9
  %15 = load i32, ptr %7, align 4, !tbaa !9
  %16 = icmp sgt i32 %14, %15
  br i1 %16, label %17, label %19

17:                                               ; preds = %13
  %18 = load i32, ptr %7, align 4, !tbaa !9
  store i32 %18, ptr %4, align 4
  br label %21

19:                                               ; preds = %13
  %20 = load i32, ptr %5, align 4, !tbaa !9
  store i32 %20, ptr %4, align 4
  br label %21

21:                                               ; preds = %19, %17, %11
  %22 = load i32, ptr %4, align 4
  ret i32 %22
}

; Function Attrs: alwaysinline nounwind uwtable
define internal float @scale(float noundef %0, float noundef %1) #12 {
  %3 = alloca float, align 4
  %4 = alloca float, align 4
  store float %0, ptr %3, align 4, !tbaa !99
  store float %1, ptr %4, align 4, !tbaa !99
  %5 = load float, ptr %3, align 4, !tbaa !99
  %6 = call nsz float @llvm.fmuladd.f32(float 5.000000e-01, float %5, float 5.000000e-01)
  %7 = load float, ptr %4, align 4, !tbaa !99
  %8 = fsub nsz float %7, 1.000000e+00
  %9 = fmul nsz float %6, %8
  ret float %9
}

; Function Attrs: nounwind uwtable
define internal i32 @xyz_to_flat(ptr noundef %0, ptr noundef %1, i32 noundef %2, i32 noundef %3, ptr noundef %4, ptr noundef %5, ptr noundef %6, ptr noundef %7) #0 {
  %9 = alloca ptr, align 8
  %10 = alloca ptr, align 8
  %11 = alloca i32, align 4
  %12 = alloca i32, align 4
  %13 = alloca ptr, align 8
  %14 = alloca ptr, align 8
  %15 = alloca ptr, align 8
  %16 = alloca ptr, align 8
  %17 = alloca float, align 4
  %18 = alloca float, align 4
  %19 = alloca float, align 4
  %20 = alloca float, align 4
  %21 = alloca float, align 4
  %22 = alloca float, align 4
  %23 = alloca float, align 4
  %24 = alloca float, align 4
  %25 = alloca i32, align 4
  %26 = alloca i32, align 4
  %27 = alloca i32, align 4
  %28 = alloca i32, align 4
  %29 = alloca i32, align 4
  %30 = alloca i32, align 4
  store ptr %0, ptr %9, align 8, !tbaa !4
  store ptr %1, ptr %10, align 8, !tbaa !188
  store i32 %2, ptr %11, align 4, !tbaa !9
  store i32 %3, ptr %12, align 4, !tbaa !9
  store ptr %4, ptr %13, align 8, !tbaa !21
  store ptr %5, ptr %14, align 8, !tbaa !21
  store ptr %6, ptr %15, align 8, !tbaa !188
  store ptr %7, ptr %16, align 8, !tbaa !188
  call void @llvm.lifetime.start.p0(i64 4, ptr %17) #13
  %31 = load ptr, ptr %10, align 8, !tbaa !188
  %32 = getelementptr inbounds float, ptr %31, i64 2
  %33 = load float, ptr %32, align 4, !tbaa !99
  %34 = call nsz float @llvm.acos.f32(float %33)
  store float %34, ptr %17, align 4, !tbaa !99
  call void @llvm.lifetime.start.p0(i64 4, ptr %18) #13
  %35 = load float, ptr %17, align 4, !tbaa !99
  %36 = call nsz float @llvm.tan.f32(float %35)
  store float %36, ptr %18, align 4, !tbaa !99
  call void @llvm.lifetime.start.p0(i64 4, ptr %19) #13
  %37 = load float, ptr %18, align 4, !tbaa !99
  %38 = call nsz float @llvm.fabs.f32(float %37)
  %39 = fcmp nsz olt float %38, 1.000000e+06
  br i1 %39, label %40, label %42

40:                                               ; preds = %8
  %41 = load float, ptr %18, align 4, !tbaa !99
  br label %48

42:                                               ; preds = %8
  %43 = load i32, ptr %11, align 4, !tbaa !9
  %44 = sitofp i32 %43 to float
  %45 = load i32, ptr %12, align 4, !tbaa !9
  %46 = sitofp i32 %45 to float
  %47 = call nsz float @hypotf(float noundef %44, float noundef %46) #14
  br label %48

48:                                               ; preds = %42, %40
  %49 = phi nsz float [ %41, %40 ], [ %47, %42 ]
  store float %49, ptr %19, align 4, !tbaa !99
  call void @llvm.lifetime.start.p0(i64 4, ptr %20) #13
  %50 = load ptr, ptr %10, align 8, !tbaa !188
  %51 = getelementptr inbounds float, ptr %50, i64 2
  %52 = load float, ptr %51, align 4, !tbaa !99
  store float %52, ptr %20, align 4, !tbaa !99
  call void @llvm.lifetime.start.p0(i64 4, ptr %21) #13
  %53 = load ptr, ptr %10, align 8, !tbaa !188
  %54 = getelementptr inbounds float, ptr %53, i64 0
  %55 = load float, ptr %54, align 4, !tbaa !99
  %56 = load ptr, ptr %10, align 8, !tbaa !188
  %57 = getelementptr inbounds float, ptr %56, i64 1
  %58 = load float, ptr %57, align 4, !tbaa !99
  %59 = call nsz float @hypotf(float noundef %55, float noundef %58) #14
  store float %59, ptr %21, align 4, !tbaa !99
  call void @llvm.lifetime.start.p0(i64 4, ptr %22) #13
  %60 = load float, ptr %21, align 4, !tbaa !99
  %61 = fcmp nsz ole float %60, 0x3EB0C6F7A0000000
  br i1 %61, label %62, label %63

62:                                               ; preds = %48
  br label %67

63:                                               ; preds = %48
  %64 = load float, ptr %19, align 4, !tbaa !99
  %65 = load float, ptr %21, align 4, !tbaa !99
  %66 = fdiv nsz float %64, %65
  br label %67

67:                                               ; preds = %63, %62
  %68 = phi nsz float [ 1.000000e+00, %62 ], [ %66, %63 ]
  store float %68, ptr %22, align 4, !tbaa !99
  call void @llvm.lifetime.start.p0(i64 4, ptr %23) #13
  %69 = load ptr, ptr %10, align 8, !tbaa !188
  %70 = getelementptr inbounds float, ptr %69, i64 0
  %71 = load float, ptr %70, align 4, !tbaa !99
  %72 = load float, ptr %22, align 4, !tbaa !99
  %73 = fmul nsz float %71, %72
  %74 = load ptr, ptr %9, align 8, !tbaa !4
  %75 = getelementptr inbounds nuw %struct.V360Context, ptr %74, i32 0, i32 43
  %76 = getelementptr inbounds [2 x float], ptr %75, i64 0, i64 0
  %77 = load float, ptr %76, align 4, !tbaa !99
  %78 = fdiv nsz float %73, %77
  store float %78, ptr %23, align 4, !tbaa !99
  call void @llvm.lifetime.start.p0(i64 4, ptr %24) #13
  %79 = load ptr, ptr %10, align 8, !tbaa !188
  %80 = getelementptr inbounds float, ptr %79, i64 1
  %81 = load float, ptr %80, align 4, !tbaa !99
  %82 = load float, ptr %22, align 4, !tbaa !99
  %83 = fmul nsz float %81, %82
  %84 = load ptr, ptr %9, align 8, !tbaa !4
  %85 = getelementptr inbounds nuw %struct.V360Context, ptr %84, i32 0, i32 43
  %86 = getelementptr inbounds [2 x float], ptr %85, i64 0, i64 1
  %87 = load float, ptr %86, align 4, !tbaa !99
  %88 = fdiv nsz float %83, %87
  store float %88, ptr %24, align 4, !tbaa !99
  call void @llvm.lifetime.start.p0(i64 4, ptr %25) #13
  call void @llvm.lifetime.start.p0(i64 4, ptr %26) #13
  call void @llvm.lifetime.start.p0(i64 4, ptr %27) #13
  %89 = load float, ptr %20, align 4, !tbaa !99
  %90 = fcmp nsz oge float %89, 0.000000e+00
  br i1 %90, label %91, label %96

91:                                               ; preds = %67
  %92 = load float, ptr %23, align 4, !tbaa !99
  %93 = load i32, ptr %11, align 4, !tbaa !9
  %94 = sitofp i32 %93 to float
  %95 = call nsz float @scale(float noundef %92, float noundef %94)
  br label %97

96:                                               ; preds = %67
  br label %97

97:                                               ; preds = %96, %91
  %98 = phi nsz float [ %95, %91 ], [ 0.000000e+00, %96 ]
  store float %98, ptr %23, align 4, !tbaa !99
  %99 = load float, ptr %20, align 4, !tbaa !99
  %100 = fcmp nsz oge float %99, 0.000000e+00
  br i1 %100, label %101, label %106

101:                                              ; preds = %97
  %102 = load float, ptr %24, align 4, !tbaa !99
  %103 = load i32, ptr %12, align 4, !tbaa !9
  %104 = sitofp i32 %103 to float
  %105 = call nsz float @scale(float noundef %102, float noundef %104)
  br label %107

106:                                              ; preds = %97
  br label %107

107:                                              ; preds = %106, %101
  %108 = phi nsz float [ %105, %101 ], [ 0.000000e+00, %106 ]
  store float %108, ptr %24, align 4, !tbaa !99
  %109 = load float, ptr %23, align 4, !tbaa !99
  %110 = call nsz float @llvm.floor.f32(float %109)
  %111 = fptosi float %110 to i32
  store i32 %111, ptr %26, align 4, !tbaa !9
  %112 = load float, ptr %24, align 4, !tbaa !99
  %113 = call nsz float @llvm.floor.f32(float %112)
  %114 = fptosi float %113 to i32
  store i32 %114, ptr %27, align 4, !tbaa !9
  %115 = load i32, ptr %27, align 4, !tbaa !9
  %116 = icmp sge i32 %115, 0
  br i1 %116, label %117, label %131

117:                                              ; preds = %107
  %118 = load i32, ptr %27, align 4, !tbaa !9
  %119 = load i32, ptr %12, align 4, !tbaa !9
  %120 = icmp slt i32 %118, %119
  br i1 %120, label %121, label %131

121:                                              ; preds = %117
  %122 = load i32, ptr %26, align 4, !tbaa !9
  %123 = icmp sge i32 %122, 0
  br i1 %123, label %124, label %131

124:                                              ; preds = %121
  %125 = load i32, ptr %26, align 4, !tbaa !9
  %126 = load i32, ptr %11, align 4, !tbaa !9
  %127 = icmp slt i32 %125, %126
  br i1 %127, label %128, label %131

128:                                              ; preds = %124
  %129 = load float, ptr %20, align 4, !tbaa !99
  %130 = fcmp nsz oge float %129, 0.000000e+00
  br label %131

131:                                              ; preds = %128, %124, %121, %117, %107
  %132 = phi i1 [ false, %124 ], [ false, %121 ], [ false, %117 ], [ false, %107 ], [ %130, %128 ]
  %133 = zext i1 %132 to i32
  store i32 %133, ptr %25, align 4, !tbaa !9
  %134 = load float, ptr %23, align 4, !tbaa !99
  %135 = load i32, ptr %26, align 4, !tbaa !9
  %136 = sitofp i32 %135 to float
  %137 = fsub nsz float %134, %136
  %138 = load ptr, ptr %15, align 8, !tbaa !188
  store float %137, ptr %138, align 4, !tbaa !99
  %139 = load float, ptr %24, align 4, !tbaa !99
  %140 = load i32, ptr %27, align 4, !tbaa !9
  %141 = sitofp i32 %140 to float
  %142 = fsub nsz float %139, %141
  %143 = load ptr, ptr %16, align 8, !tbaa !188
  store float %142, ptr %143, align 4, !tbaa !99
  call void @llvm.lifetime.start.p0(i64 4, ptr %28) #13
  store i32 0, ptr %28, align 4, !tbaa !9
  br label %144

144:                                              ; preds = %200, %131
  %145 = load i32, ptr %28, align 4, !tbaa !9
  %146 = icmp slt i32 %145, 4
  br i1 %146, label %148, label %147

147:                                              ; preds = %144
  store i32 2, ptr %29, align 4
  call void @llvm.lifetime.end.p0(i64 4, ptr %28) #13
  br label %203

148:                                              ; preds = %144
  call void @llvm.lifetime.start.p0(i64 4, ptr %30) #13
  store i32 0, ptr %30, align 4, !tbaa !9
  br label %149

149:                                              ; preds = %196, %148
  %150 = load i32, ptr %30, align 4, !tbaa !9
  %151 = icmp slt i32 %150, 4
  br i1 %151, label %153, label %152

152:                                              ; preds = %149
  store i32 5, ptr %29, align 4
  call void @llvm.lifetime.end.p0(i64 4, ptr %30) #13
  br label %199

153:                                              ; preds = %149
  %154 = load i32, ptr %25, align 4, !tbaa !9
  %155 = icmp ne i32 %154, 0
  br i1 %155, label %156, label %164

156:                                              ; preds = %153
  %157 = load i32, ptr %26, align 4, !tbaa !9
  %158 = load i32, ptr %30, align 4, !tbaa !9
  %159 = add nsw i32 %157, %158
  %160 = sub nsw i32 %159, 1
  %161 = load i32, ptr %11, align 4, !tbaa !9
  %162 = sub nsw i32 %161, 1
  %163 = call i32 @av_clip_c(i32 noundef %160, i32 noundef 0, i32 noundef %162) #14
  br label %165

164:                                              ; preds = %153
  br label %165

165:                                              ; preds = %164, %156
  %166 = phi i32 [ %163, %156 ], [ 0, %164 ]
  %167 = trunc i32 %166 to i16
  %168 = load ptr, ptr %13, align 8, !tbaa !21
  %169 = load i32, ptr %28, align 4, !tbaa !9
  %170 = sext i32 %169 to i64
  %171 = getelementptr inbounds [4 x i16], ptr %168, i64 %170
  %172 = load i32, ptr %30, align 4, !tbaa !9
  %173 = sext i32 %172 to i64
  %174 = getelementptr inbounds [4 x i16], ptr %171, i64 0, i64 %173
  store i16 %167, ptr %174, align 2, !tbaa !23
  %175 = load i32, ptr %25, align 4, !tbaa !9
  %176 = icmp ne i32 %175, 0
  br i1 %176, label %177, label %185

177:                                              ; preds = %165
  %178 = load i32, ptr %27, align 4, !tbaa !9
  %179 = load i32, ptr %28, align 4, !tbaa !9
  %180 = add nsw i32 %178, %179
  %181 = sub nsw i32 %180, 1
  %182 = load i32, ptr %12, align 4, !tbaa !9
  %183 = sub nsw i32 %182, 1
  %184 = call i32 @av_clip_c(i32 noundef %181, i32 noundef 0, i32 noundef %183) #14
  br label %186

185:                                              ; preds = %165
  br label %186

186:                                              ; preds = %185, %177
  %187 = phi i32 [ %184, %177 ], [ 0, %185 ]
  %188 = trunc i32 %187 to i16
  %189 = load ptr, ptr %14, align 8, !tbaa !21
  %190 = load i32, ptr %28, align 4, !tbaa !9
  %191 = sext i32 %190 to i64
  %192 = getelementptr inbounds [4 x i16], ptr %189, i64 %191
  %193 = load i32, ptr %30, align 4, !tbaa !9
  %194 = sext i32 %193 to i64
  %195 = getelementptr inbounds [4 x i16], ptr %192, i64 0, i64 %194
  store i16 %188, ptr %195, align 2, !tbaa !23
  br label %196

196:                                              ; preds = %186
  %197 = load i32, ptr %30, align 4, !tbaa !9
  %198 = add nsw i32 %197, 1
  store i32 %198, ptr %30, align 4, !tbaa !9
  br label %149, !llvm.loop !206

199:                                              ; preds = %152
  br label %200

200:                                              ; preds = %199
  %201 = load i32, ptr %28, align 4, !tbaa !9
  %202 = add nsw i32 %201, 1
  store i32 %202, ptr %28, align 4, !tbaa !9
  br label %144, !llvm.loop !207

203:                                              ; preds = %147
  %204 = load i32, ptr %25, align 4, !tbaa !9
  store i32 1, ptr %29, align 4
  call void @llvm.lifetime.end.p0(i64 4, ptr %27) #13
  call void @llvm.lifetime.end.p0(i64 4, ptr %26) #13
  call void @llvm.lifetime.end.p0(i64 4, ptr %25) #13
  call void @llvm.lifetime.end.p0(i64 4, ptr %24) #13
  call void @llvm.lifetime.end.p0(i64 4, ptr %23) #13
  call void @llvm.lifetime.end.p0(i64 4, ptr %22) #13
  call void @llvm.lifetime.end.p0(i64 4, ptr %21) #13
  call void @llvm.lifetime.end.p0(i64 4, ptr %20) #13
  call void @llvm.lifetime.end.p0(i64 4, ptr %19) #13
  call void @llvm.lifetime.end.p0(i64 4, ptr %18) #13
  call void @llvm.lifetime.end.p0(i64 4, ptr %17) #13
  ret i32 %204
}