; Function Attrs: nofree norecurse nosync nounwind memory(argmem: readwrite) uwtable
define internal range(i32 0, 2) i32 @xyz_to_flat(ptr noundef readonly captures(none) %0, ptr noundef readonly captures(none) %1, i32 noundef %2, i32 noundef %3, ptr noundef writeonly captures(none) %4, ptr noundef writeonly captures(none) %5, ptr noundef writeonly captures(none) initializes((0, 4)) %6, ptr noundef writeonly captures(none) initializes((0, 4)) %7) #1 {
  %9 = getelementptr inbounds nuw i8, ptr %1, i64 8
  %10 = load float, ptr %9, align 4, !tbaa !49
  %11 = tail call nsz float @llvm.acos.f32(float %10)
  %12 = tail call nsz float @llvm.tan.f32(float %11)
  %13 = tail call nsz float @llvm.fabs.f32(float %12)
  %14 = fcmp nsz olt float %13, 1.000000e+06
  br i1 %14, label %19, label %15

15:                                               ; preds = %8
  %16 = sitofp i32 %2 to float
  %17 = sitofp i32 %3 to float
  %18 = tail call nsz float @hypotf(float noundef %16, float noundef %17) #19
  br label %19

19:                                               ; preds = %8, %15
  %20 = phi nsz float [ %18, %15 ], [ %12, %8 ]
  %21 = fcmp nsz oge float %10, 0.000000e+00
  br i1 %21, label %22, label %46

22:                                               ; preds = %19
  %23 = getelementptr inbounds nuw i8, ptr %1, i64 4
  %24 = load float, ptr %23, align 4, !tbaa !49
  %25 = load float, ptr %1, align 4, !tbaa !49
  %26 = tail call nsz float @hypotf(float noundef %25, float noundef %24) #19
  %27 = fcmp nsz ole float %26, 0x3EB0C6F7A0000000
  %28 = fdiv nsz float %20, %26
  %29 = select nsz i1 %27, float 1.000000e+00, float %28
  %30 = fmul nsz float %24, %29
  %31 = getelementptr inbounds nuw i8, ptr %0, i64 296
  %32 = load float, ptr %31, align 4, !tbaa !49
  %33 = fdiv nsz float %30, %32
  %34 = getelementptr inbounds nuw i8, ptr %0, i64 292
  %35 = fmul nsz float %25, %29
  %36 = load float, ptr %34, align 4, !tbaa !49
  %37 = fdiv nsz float %35, %36
  %38 = sitofp i32 %2 to float
  %39 = tail call nsz float @llvm.fmuladd.f32(float %37, float 5.000000e-01, float 5.000000e-01)
  %40 = fadd nsz float %38, -1.000000e+00
  %41 = fmul nsz float %40, %39
  %42 = sitofp i32 %3 to float
  %43 = tail call nsz float @llvm.fmuladd.f32(float %33, float 5.000000e-01, float 5.000000e-01)
  %44 = fadd nsz float %42, -1.000000e+00
  %45 = fmul nsz float %44, %43
  br label %46

46:                                               ; preds = %19, %22
  %47 = phi float [ %41, %22 ], [ 0.000000e+00, %19 ]
  %48 = phi nsz float [ %45, %22 ], [ 0.000000e+00, %19 ]
  %49 = tail call nsz float @llvm.floor.f32(float %47)
  %50 = fptosi float %49 to i32
  %51 = tail call nsz float @llvm.floor.f32(float %48)
  %52 = fptosi float %51 to i32
  %53 = icmp sgt i32 %52, -1
  br i1 %53, label %58, label %.thread

.thread:                                          ; preds = %46
  %54 = sitofp i32 %50 to float
  %55 = fsub nsz float %47, %54
  store float %55, ptr %6, align 4, !tbaa !49
  %56 = sitofp i32 %52 to float
  %57 = fsub nsz float %48, %56
  store float %57, ptr %7, align 4, !tbaa !49
  br label %.preheader.preheader

58:                                               ; preds = %46
  %59 = icmp sgt i32 %3, %52
  %60 = icmp sgt i32 %50, -1
  %61 = icmp sgt i32 %2, %50
  %62 = and i1 %60, %61
  %or.cond61 = select i1 %59, i1 %62, i1 false
  %spec.select = and i1 %21, %or.cond61
  %63 = sitofp i32 %50 to float
  %64 = fsub nsz float %47, %63
  store float %64, ptr %6, align 4, !tbaa !49
  %65 = uitofp nneg i32 %52 to float
  %66 = fsub nsz float %48, %65
  store float %66, ptr %7, align 4, !tbaa !49
  br i1 %spec.select, label %.preheader.us.preheader, label %.preheader.preheader

.preheader.preheader:                             ; preds = %.thread, %58
  br label %.preheader

.preheader.us.preheader:                          ; preds = %58
  %67 = zext nneg i32 %50 to i64
  %68 = zext nneg i32 %52 to i64
  br label %.preheader.us

.preheader.us:                                    ; preds = %.preheader.us.preheader, %.split.us.us
  %indvars.iv81 = phi i64 [ 0, %.preheader.us.preheader ], [ %indvars.iv.next82, %.split.us.us ]
  %69 = add nuw nsw i64 %indvars.iv81, %68
  %70 = trunc nsw i64 %69 to i32
  %71 = tail call i32 @llvm.smin.i32(i32 %70, i32 %3)
  %.inv65.us.not = icmp eq i64 %69, 0
  %72 = trunc i32 %71 to i16
  %73 = add i16 %72, -1
  %74 = select i1 %.inv65.us.not, i16 0, i16 %73
  br label %75

75:                                               ; preds = %75, %.preheader.us
  %indvars.iv77 = phi i64 [ %indvars.iv.next78, %75 ], [ 0, %.preheader.us ]
  %76 = add nuw nsw i64 %indvars.iv77, %67
  %77 = trunc nsw i64 %76 to i32
  %78 = tail call i32 @llvm.smin.i32(i32 %77, i32 %2)
  %.inv.us.us.not = icmp eq i64 %76, 0
  %79 = trunc i32 %78 to i16
  %80 = add i16 %79, -1
  %81 = select i1 %.inv.us.us.not, i16 0, i16 %80
  %82 = getelementptr inbounds nuw [4 x i16], ptr %4, i64 %indvars.iv81, i64 %indvars.iv77
  store i16 %81, ptr %82, align 2, !tbaa !15
  %83 = getelementptr inbounds nuw [4 x i16], ptr %5, i64 %indvars.iv81, i64 %indvars.iv77
  store i16 %74, ptr %83, align 2, !tbaa !15
  %indvars.iv.next78 = add nuw nsw i64 %indvars.iv77, 1
  %exitcond80.not = icmp eq i64 %indvars.iv.next78, 4
  br i1 %exitcond80.not, label %.split.us.us, label %75, !llvm.loop !195

.split.us.us:                                     ; preds = %75
  %indvars.iv.next82 = add nuw nsw i64 %indvars.iv81, 1
  %exitcond84.not = icmp eq i64 %indvars.iv.next82, 4
  br i1 %exitcond84.not, label %.split70.us, label %.preheader.us, !llvm.loop !196

.preheader:                                       ; preds = %.preheader.preheader, %.split
  %indvars.iv73 = phi i64 [ %indvars.iv.next74, %.split ], [ 0, %.preheader.preheader ]
  br label %85

.split70.us:                                      ; preds = %.split, %.split.us.us
  %84 = phi i32 [ 1, %.split.us.us ], [ 0, %.split ]
  ret i32 %84

.split:                                           ; preds = %85
  %indvars.iv.next74 = add nuw nsw i64 %indvars.iv73, 1
  %exitcond76.not = icmp eq i64 %indvars.iv.next74, 4
  br i1 %exitcond76.not, label %.split70.us, label %.preheader, !llvm.loop !196

85:                                               ; preds = %.preheader, %85
  %indvars.iv = phi i64 [ 0, %.preheader ], [ %indvars.iv.next, %85 ]
  %86 = getelementptr inbounds nuw [4 x i16], ptr %4, i64 %indvars.iv73, i64 %indvars.iv
  store i16 0, ptr %86, align 2, !tbaa !15
  %87 = getelementptr inbounds nuw [4 x i16], ptr %5, i64 %indvars.iv73, i64 %indvars.iv
  store i16 0, ptr %87, align 2, !tbaa !15
  %indvars.iv.next = add nuw nsw i64 %indvars.iv, 1
  %exitcond.not = icmp eq i64 %indvars.iv.next, 4
  br i1 %exitcond.not, label %.split, label %85, !llvm.loop !195
}